target datalayout = "e-m:e-p270:32:32-p271:32:32-p272:64:64-i64:64-i128:128-f80:128-n8:16:32:64-S128"
target triple = "x86_64-pc-linux-gnu"

%struct.OSQPSolver = type { ptr, ptr, ptr, ptr }
%struct.OSQPWorkspace_ = type { ptr, ptr, ptr, ptr, ptr, ptr, ptr, ptr, ptr, ptr, ptr, ptr, ptr, ptr, ptr, ptr, ptr, ptr, ptr, ptr, ptr, ptr, ptr, ptr, ptr, ptr, double, double, double, ptr, i64, i64, i64, i64, ptr }
%struct.OSQPData = type { i64, i64, ptr, ptr, ptr, ptr, ptr }
%struct.OSQPScaling = type { double, ptr, ptr, double, ptr, ptr }

; Function Attrs: nounwind uwtable
define i64 @unscale_data(ptr noundef %0) #0 {
  %2 = alloca ptr, align 8
  %3 = alloca ptr, align 8
  store ptr %0, ptr %2, align 8
  %4 = load ptr, ptr %2, align 8
  %5 = getelementptr inbounds %struct.OSQPSolver, ptr %4, i32 0, i32 3
  %6 = load ptr, ptr %5, align 8
  store ptr %6, ptr %3, align 8
  %7 = load ptr, ptr %3, align 8
  %8 = getelementptr inbounds %struct.OSQPWorkspace_, ptr %7, i32 0, i32 0
  %9 = load ptr, ptr %8, align 8
  %10 = getelementptr inbounds %struct.OSQPData, ptr %9, i32 0, i32 2
  %11 = load ptr, ptr %10, align 8
  %12 = load ptr, ptr %3, align 8
  %13 = getelementptr inbounds %struct.OSQPWorkspace_, ptr %12, i32 0, i32 25
  %14 = load ptr, ptr %13, align 8
  %15 = getelementptr inbounds %struct.OSQPScaling, ptr %14, i32 0, i32 3
  %16 = load double, ptr %15, align 8
  call void @OSQPMatrix_mult_scalar(ptr noundef %11, double noundef %16)
  %17 = load ptr, ptr %3, align 8
  %18 = getelementptr inbounds %struct.OSQPWorkspace_, ptr %17, i32 0, i32 0
  %19 = load ptr, ptr %18, align 8
  %20 = getelementptr inbounds %struct.OSQPData, ptr %19, i32 0, i32 2
  %21 = load ptr, ptr %20, align 8
  %22 = load ptr, ptr %3, align 8
  %23 = getelementptr inbounds %struct.OSQPWorkspace_, ptr %22, i32 0, i32 25
  %24 = load ptr, ptr %23, align 8
  %25 = getelementptr inbounds %struct.OSQPScaling, ptr %24, i32 0, i32 4
  %26 = load ptr, ptr %25, align 8
  call void @OSQPMatrix_lmult_diag(ptr noundef %21, ptr noundef %26)
  %27 = load ptr, ptr %3, align 8
  %28 = getelementptr inbounds %struct.OSQPWorkspace_, ptr %27, i32 0, i32 0
  %29 = load ptr, ptr %28, align 8
  %30 = getelementptr inbounds %struct.OSQPData, ptr %29, i32 0, i32 2
  %31 = load ptr, ptr %30, align 8
  %32 = load ptr, ptr %3, align 8
  %33 = getelementptr inbounds %struct.OSQPWorkspace_, ptr %32, i32 0, i32 25
  %34 = load ptr, ptr %33, align 8
  %35 = getelementptr inbounds %struct.OSQPScaling, ptr %34, i32 0, i32 4
  %36 = load ptr, ptr %35, align 8
  call void @OSQPMatrix_rmult_diag(ptr noundef %31, ptr noundef %36)
  %37 = load ptr, ptr %3, align 8
  %38 = getelementptr inbounds %struct.OSQPWorkspace_, ptr %37, i32 0, i32 0
  %39 = load ptr, ptr %38, align 8
  %40 = getelementptr inbounds %struct.OSQPData, ptr %39, i32 0, i32 4
  %41 = load ptr, ptr %40, align 8
  %42 = load ptr, ptr %3, align 8
  %43 = getelementptr inbounds %struct.OSQPWorkspace_, ptr %42, i32 0, i32 25
  %44 = load ptr, ptr %43, align 8
  %45 = getelementptr inbounds %struct.OSQPScaling, ptr %44, i32 0, i32 3
  %46 = load double, ptr %45, align 8
  call void @OSQPVectorf_mult_scalar(ptr noundef %41, double noundef %46)
  %47 = load ptr, ptr %3, align 8
  %48 = getelementptr inbounds %struct.OSQPWorkspace_, ptr %47, i32 0, i32 0
  %49 = load ptr, ptr %48, align 8
  %50 = getelementptr inbounds %struct.OSQPData, ptr %49, i32 0, i32 4
  %51 = load ptr, ptr %50, align 8
  %52 = load ptr, ptr %3, align 8
  %53 = getelementptr inbounds %struct.OSQPWorkspace_, ptr %52, i32 0, i32 0
  %54 = load ptr, ptr %53, align 8
  %55 = getelementptr inbounds %struct.OSQPData, ptr %54, i32 0, i32 4
  %56 = load ptr, ptr %55, align 8
  %57 = load ptr, ptr %3, align 8
  %58 = getelementptr inbounds %struct.OSQPWorkspace_, ptr %57, i32 0, i32 25
  %59 = load ptr, ptr %58, align 8
  %60 = getelementptr inbounds %struct.OSQPScaling, ptr %59, i32 0, i32 4
  %61 = load ptr, ptr %60, align 8
  call void @OSQPVectorf_ew_prod(ptr noundef %51, ptr noundef %56, ptr noundef %61)
  %62 = load ptr, ptr %3, align 8
  %63 = getelementptr inbounds %struct.OSQPWorkspace_, ptr %62, i32 0, i32 0
  %64 = load ptr, ptr %63, align 8
  %65 = getelementptr inbounds %struct.OSQPData, ptr %64, i32 0, i32 3
  %66 = load ptr, ptr %65, align 8
  %67 = load ptr, ptr %3, align 8
  %68 = getelementptr inbounds %struct.OSQPWorkspace_, ptr %67, i32 0, i32 25
  %69 = load ptr, ptr %68, align 8
  %70 = getelementptr inbounds %struct.OSQPScaling, ptr %69, i32 0, i32 5
  %71 = load ptr, ptr %70, align 8
  call void @OSQPMatrix_lmult_diag(ptr noundef %66, ptr noundef %71)
  %72 = load ptr, ptr %3, align 8
  %73 = getelementptr inbounds %struct.OSQPWorkspace_, ptr %72, i32 0, i32 0
  %74 = load ptr, ptr %73, align 8
  %75 = getelementptr inbounds %struct.OSQPData, ptr %74, i32 0, i32 3
  %76 = load ptr, ptr %75, align 8
  %77 = load ptr, ptr %3, align 8
  %78 = getelementptr inbounds %struct.OSQPWorkspace_, ptr %77, i32 0, i32 25
  %79 = load ptr, ptr %78, align 8
  %80 = getelementptr inbounds %struct.OSQPScaling, ptr %79, i32 0, i32 4
  %81 = load ptr, ptr %80, align 8
  call void @OSQPMatrix_rmult_diag(ptr noundef %76, ptr noundef %81)
  %82 = load ptr, ptr %3, align 8
  %83 = getelementptr inbounds %struct.OSQPWorkspace_, ptr %82, i32 0, i32 0
  %84 = load ptr, ptr %83, align 8
  %85 = getelementptr inbounds %struct.OSQPData, ptr %84, i32 0, i32 5
  %86 = load ptr, ptr %85, align 8
  %87 = load ptr, ptr %3, align 8
  %88 = getelementptr inbounds %struct.OSQPWorkspace_, ptr %87, i32 0, i32 0
  %89 = load ptr, ptr %88, align 8
  %90 = getelementptr inbounds %struct.OSQPData, ptr %89, i32 0, i32 5
  %91 = load ptr, ptr %90, align 8
  %92 = load ptr, ptr %3, align 8
  %93 = getelementptr inbounds %struct.OSQPWorkspace_, ptr %92, i32 0, i32 25
  %94 = load ptr, ptr %93, align 8
  %95 = getelementptr inbounds %struct.OSQPScaling, ptr %94, i32 0, i32 5
  %96 = load ptr, ptr %95, align 8
  call void @OSQPVectorf_ew_prod(ptr noundef %86, ptr noundef %91, ptr noundef %96)
  %97 = load ptr, ptr %3, align 8
  %98 = getelementptr inbounds %struct.OSQPWorkspace_, ptr %97, i32 0, i32 0
  %99 = load ptr, ptr %98, align 8
  %100 = getelementptr inbounds %struct.OSQPData, ptr %99, i32 0, i32 6
  %101 = load ptr, ptr %100, align 8
  %102 = load ptr, ptr %3, align 8
  %103 = getelementptr inbounds %struct.OSQPWorkspace_, ptr %102, i32 0, i32 0
  %104 = load ptr, ptr %103, align 8
  %105 = getelementptr inbounds %struct.OSQPData, ptr %104, i32 0, i32 6
  %106 = load ptr, ptr %105, align 8
  %107 = load ptr, ptr %3, align 8
  %108 = getelementptr inbounds %struct.OSQPWorkspace_, ptr %107, i32 0, i32 25
  %109 = load ptr, ptr %108, align 8
  %110 = getelementptr inbounds %struct.OSQPScaling, ptr %109, i32 0, i32 5
  %111 = load ptr, ptr %110, align 8
  call void @OSQPVectorf_ew_prod(ptr noundef %101, ptr noundef %106, ptr noundef %111)
  ret i64 0
}