; Function Attrs: nounwind uwtable
define noundef i64 @unscale_data(ptr nocapture noundef readonly %0) local_unnamed_addr #1 {
  %2 = getelementptr inbounds i8, ptr %0, i64 24
  %3 = load ptr, ptr %2, align 8
  %4 = load ptr, ptr %3, align 8
  %5 = getelementptr inbounds i8, ptr %4, i64 16
  %6 = load ptr, ptr %5, align 8
  %7 = getelementptr inbounds i8, ptr %3, i64 200
  %8 = load ptr, ptr %7, align 8
  %9 = getelementptr inbounds i8, ptr %8, i64 24
  %10 = load double, ptr %9, align 8
  tail call void @OSQPMatrix_mult_scalar(ptr noundef %6, double noundef %10) #3
  %11 = load ptr, ptr %3, align 8
  %12 = getelementptr inbounds i8, ptr %11, i64 16
  %13 = load ptr, ptr %12, align 8
  %14 = load ptr, ptr %7, align 8
  %15 = getelementptr inbounds i8, ptr %14, i64 32
  %16 = load ptr, ptr %15, align 8
  tail call void @OSQPMatrix_lmult_diag(ptr noundef %13, ptr noundef %16) #3
  %17 = load ptr, ptr %3, align 8
  %18 = getelementptr inbounds i8, ptr %17, i64 16
  %19 = load ptr, ptr %18, align 8
  %20 = load ptr, ptr %7, align 8
  %21 = getelementptr inbounds i8, ptr %20, i64 32
  %22 = load ptr, ptr %21, align 8
  tail call void @OSQPMatrix_rmult_diag(ptr noundef %19, ptr noundef %22) #3
  %23 = load ptr, ptr %3, align 8
  %24 = getelementptr inbounds i8, ptr %23, i64 32
  %25 = load ptr, ptr %24, align 8
  %26 = load ptr, ptr %7, align 8
  %27 = getelementptr inbounds i8, ptr %26, i64 24
  %28 = load double, ptr %27, align 8
  tail call void @OSQPVectorf_mult_scalar(ptr noundef %25, double noundef %28) #3
  %29 = load ptr, ptr %3, align 8
  %30 = getelementptr inbounds i8, ptr %29, i64 32
  %31 = load ptr, ptr %30, align 8
  %32 = load ptr, ptr %7, align 8
  %33 = getelementptr inbounds i8, ptr %32, i64 32
  %34 = load ptr, ptr %33, align 8
  tail call void @OSQPVectorf_ew_prod(ptr noundef %31, ptr noundef %31, ptr noundef %34) #3
  %35 = load ptr, ptr %3, align 8
  %36 = getelementptr inbounds i8, ptr %35, i64 24
  %37 = load ptr, ptr %36, align 8
  %38 = load ptr, ptr %7, align 8
  %39 = getelementptr inbounds i8, ptr %38, i64 40
  %40 = load ptr, ptr %39, align 8
  tail call void @OSQPMatrix_lmult_diag(ptr noundef %37, ptr noundef %40) #3
  %41 = load ptr, ptr %3, align 8
  %42 = getelementptr inbounds i8, ptr %41, i64 24
  %43 = load ptr, ptr %42, align 8
  %44 = load ptr, ptr %7, align 8
  %45 = getelementptr inbounds i8, ptr %44, i64 32
  %46 = load ptr, ptr %45, align 8
  tail call void @OSQPMatrix_rmult_diag(ptr noundef %43, ptr noundef %46) #3
  %47 = load ptr, ptr %3, align 8
  %48 = getelementptr inbounds i8, ptr %47, i64 40
  %49 = load ptr, ptr %48, align 8
  %50 = load ptr, ptr %7, align 8
  %51 = getelementptr inbounds i8, ptr %50, i64 40
  %52 = load ptr, ptr %51, align 8
  tail call void @OSQPVectorf_ew_prod(ptr noundef %49, ptr noundef %49, ptr noundef %52) #3
  %53 = load ptr, ptr %3, align 8
  %54 = getelementptr inbounds i8, ptr %53, i64 48
  %55 = load ptr, ptr %54, align 8
  %56 = load ptr, ptr %7, align 8
  %57 = getelementptr inbounds i8, ptr %56, i64 40
  %58 = load ptr, ptr %57, align 8
  tail call void @OSQPVectorf_ew_prod(ptr noundef %55, ptr noundef %55, ptr noundef %58) #3
  ret i64 0
}